target datalayout = "e-m:e-p270:32:32-p271:32:32-p272:64:64-i64:64-i128:128-f80:128-n8:16:32:64-S128"
target triple = "x86_64-pc-linux-gnu"

%struct.Gia_Obj_t_ = type <{ i64, i32 }>

; Function Attrs: nounwind uwtable
define i32 @Gia_ObjCompareByValue(ptr noundef %0, ptr noundef %1) #0 {
  %3 = alloca ptr, align 8
  %4 = alloca ptr, align 8
  %5 = alloca ptr, align 8
  %6 = alloca ptr, align 8
  store ptr %0, ptr %3, align 8, !tbaa !124
  store ptr %1, ptr %4, align 8, !tbaa !124
  call void @llvm.lifetime.start.p0(i64 8, ptr %5) #12
  %7 = load ptr, ptr %3, align 8, !tbaa !124
  %8 = load ptr, ptr %7, align 8, !tbaa !47
  store ptr %8, ptr %5, align 8, !tbaa !47
  call void @llvm.lifetime.start.p0(i64 8, ptr %6) #12
  %9 = load ptr, ptr %4, align 8, !tbaa !124
  %10 = load ptr, ptr %9, align 8, !tbaa !47
  store ptr %10, ptr %6, align 8, !tbaa !47
  %11 = load ptr, ptr %5, align 8, !tbaa !47
  %12 = getelementptr inbounds nuw %struct.Gia_Obj_t_, ptr %11, i32 0, i32 1
  %13 = load i32, ptr %12, align 4, !tbaa !48
  %14 = load ptr, ptr %6, align 8, !tbaa !47
  %15 = getelementptr inbounds nuw %struct.Gia_Obj_t_, ptr %14, i32 0, i32 1
  %16 = load i32, ptr %15, align 4, !tbaa !48
  %17 = sub nsw i32 %13, %16
  call void @llvm.lifetime.end.p0(i64 8, ptr %6) #12
  call void @llvm.lifetime.end.p0(i64 8, ptr %5) #12
  ret i32 %17
}