; Function Attrs: mustprogress nofree norecurse nosync nounwind willreturn memory(read, inaccessiblemem: none) uwtable
define i32 @Gia_ObjCompareByValue(ptr noundef readonly captures(none) %0, ptr noundef readonly captures(none) %1) #11 {
  %3 = load ptr, ptr %0, align 8, !tbaa !101
  %4 = load ptr, ptr %1, align 8, !tbaa !101
  %5 = getelementptr inbounds nuw i8, ptr %3, i64 8
  %6 = load i32, ptr %5, align 4, !tbaa !44
  %7 = getelementptr inbounds nuw i8, ptr %4, i64 8
  %8 = load i32, ptr %7, align 4, !tbaa !44
  %9 = sub nsw i32 %6, %8
  ret i32 %9
}